target datalayout = "e-m:e-p270:32:32-p271:32:32-p272:64:64-i64:64-i128:128-f80:128-n8:16:32:64-S128"
target triple = "x86_64-unknown-linux-gnu"

%"class.zmq::zmtp_engine_t" = type <{ %"class.zmq::stream_engine_base_t.base", [7 x i8], %"class.zmq::msg_t", %"class.zmq::msg_t", i64, [64 x i8], [64 x i8], i32, i8, [3 x i8], i32, [4 x i8] }>
%"class.zmq::stream_engine_base_t.base" = type <{ %"class.zmq::io_object_t", %"struct.zmq::i_engine", %"struct.zmq::options_t", ptr, i64, ptr, ptr, i64, ptr, ptr, { i64, i64 }, { i64, i64 }, ptr, i8, i8, [6 x i8], %"struct.zmq::endpoint_uri_pair_t", i8, i8, i8, i8, [4 x i8], %"class.std::__cxx11::basic_string", i32, [4 x i8], ptr, i8, i8, [6 x i8], %"class.zmq::msg_t", i8, [7 x i8], ptr, ptr, i8 }>
%"class.zmq::io_object_t" = type { %"struct.zmq::i_poll_events", ptr }
%"struct.zmq::i_poll_events" = type { ptr }
%"struct.zmq::i_engine" = type { ptr }
%"struct.zmq::options_t" = type { i32, i32, i64, i8, [256 x i8], i32, i32, i32, i32, i32, i32, i32, i32, i8, %"struct.zmq::atomic_value_t", i32, i32, i32, i32, i32, i32, i64, i32, i32, i8, i32, i8, i8, i8, i8, i8, %"class.std::__cxx11::basic_string", %"class.std::__cxx11::basic_string", %"class.std::__cxx11::basic_string", i32, i32, i32, i32, %"class.std::vector", %"class.std::set", %"class.std::set", %"class.std::set.6", i32, i32, %"class.std::__cxx11::basic_string", %"class.std::__cxx11::basic_string", %"class.std::__cxx11::basic_string", [32 x i8], [32 x i8], [32 x i8], %"class.std::__cxx11::basic_string", %"class.std::__cxx11::basic_string", i32, i32, i8, i32, i8, i32, i8, i16, i32, i32, i32, %"class.std::__cxx11::basic_string", i8, i8, i8, i32, i32, i8, i32, %"class.std::map", i32, %"class.std::__cxx11::basic_string", %"class.std::__cxx11::basic_string", %"class.std::__cxx11::basic_string", %"class.std::__cxx11::basic_string", i8, %"class.std::vector.21", i8, %"class.std::vector.21", i8, %"class.std::vector.21", i8, i32, i8, i32, i32, i32, i32, i32, i8, i32 }
%"struct.zmq::atomic_value_t" = type { %"struct.std::atomic" }
%"struct.std::atomic" = type { %"struct.std::__atomic_base" }
%"struct.std::__atomic_base" = type { i32 }
%"class.std::vector" = type { %"struct.std::_Vector_base" }
%"struct.std::_Vector_base" = type { %"struct.std::_Vector_base<zmq::tcp_address_mask_t, std::allocator<zmq::tcp_address_mask_t>>::_Vector_impl" }
%"struct.std::_Vector_base<zmq::tcp_address_mask_t, std::allocator<zmq::tcp_address_mask_t>>::_Vector_impl" = type { %"struct.std::_Vector_base<zmq::tcp_address_mask_t, std::allocator<zmq::tcp_address_mask_t>>::_Vector_impl_data" }
%"struct.std::_Vector_base<zmq::tcp_address_mask_t, std::allocator<zmq::tcp_address_mask_t>>::_Vector_impl_data" = type { ptr, ptr, ptr }
%"class.std::set" = type { %"class.std::_Rb_tree" }
%"class.std::_Rb_tree" = type { %"struct.std::_Rb_tree<unsigned int, unsigned int, std::_Identity<unsigned int>, std::less<unsigned int>>::_Rb_tree_impl" }
%"struct.std::_Rb_tree<unsigned int, unsigned int, std::_Identity<unsigned int>, std::less<unsigned int>>::_Rb_tree_impl" = type { %"struct.std::_Rb_tree_key_compare", %"struct.std::_Rb_tree_header" }
%"struct.std::_Rb_tree_key_compare" = type { %"struct.std::less" }
%"struct.std::less" = type { i8 }
%"struct.std::_Rb_tree_header" = type { %"struct.std::_Rb_tree_node_base", i64 }
%"struct.std::_Rb_tree_node_base" = type { i32, ptr, ptr, ptr }
%"class.std::set.6" = type { %"class.std::_Rb_tree.7" }
%"class.std::_Rb_tree.7" = type { %"struct.std::_Rb_tree<int, int, std::_Identity<int>, std::less<int>>::_Rb_tree_impl" }
%"struct.std::_Rb_tree<int, int, std::_Identity<int>, std::less<int>>::_Rb_tree_impl" = type { %"struct.std::_Rb_tree_key_compare.11", %"struct.std::_Rb_tree_header" }
%"struct.std::_Rb_tree_key_compare.11" = type { %"struct.std::less.12" }
%"struct.std::less.12" = type { i8 }
%"class.std::map" = type { %"class.std::_Rb_tree.14" }
%"class.std::_Rb_tree.14" = type { %"struct.std::_Rb_tree<std::__cxx11::basic_string<char>, std::pair<const std::__cxx11::basic_string<char>, std::__cxx11::basic_string<char>>, std::_Select1st<std::pair<const std::__cxx11::basic_string<char>, std::__cxx11::basic_string<char>>>, std::less<std::__cxx11::basic_string<char>>>::_Rb_tree_impl" }
%"struct.std::_Rb_tree<std::__cxx11::basic_string<char>, std::pair<const std::__cxx11::basic_string<char>, std::__cxx11::basic_string<char>>, std::_Select1st<std::pair<const std::__cxx11::basic_string<char>, std::__cxx11::basic_string<char>>>, std::less<std::__cxx11::basic_string<char>>>::_Rb_tree_impl" = type { %"struct.std::_Rb_tree_key_compare.18", %"struct.std::_Rb_tree_header" }
%"struct.std::_Rb_tree_key_compare.18" = type { %"struct.std::less.19" }
%"struct.std::less.19" = type { i8 }
%"class.std::vector.21" = type { %"struct.std::_Vector_base.22" }
%"struct.std::_Vector_base.22" = type { %"struct.std::_Vector_base<unsigned char, std::allocator<unsigned char>>::_Vector_impl" }
%"struct.std::_Vector_base<unsigned char, std::allocator<unsigned char>>::_Vector_impl" = type { %"struct.std::_Vector_base<unsigned char, std::allocator<unsigned char>>::_Vector_impl_data" }
%"struct.std::_Vector_base<unsigned char, std::allocator<unsigned char>>::_Vector_impl_data" = type { ptr, ptr, ptr }
%"struct.zmq::endpoint_uri_pair_t" = type <{ %"class.std::__cxx11::basic_string", %"class.std::__cxx11::basic_string", i32, [4 x i8] }>
%"class.std::__cxx11::basic_string" = type { %"struct.std::__cxx11::basic_string<char>::_Alloc_hider", i64, %union.anon }
%"struct.std::__cxx11::basic_string<char>::_Alloc_hider" = type { ptr }
%union.anon = type { i64, [8 x i8] }
%"class.zmq::msg_t" = type { %union.anon.26 }
%union.anon.26 = type { %struct.anon }
%struct.anon = type { ptr, [34 x i8], i8, i8, i32, %"union.zmq::msg_t::group_t" }
%"union.zmq::msg_t::group_t" = type { %struct.anon.28 }
%struct.anon.28 = type { i8, ptr }
%"class.zmq::stream_engine_base_t" = type <{ %"class.zmq::io_object_t", %"struct.zmq::i_engine", %"struct.zmq::options_t", ptr, i64, ptr, ptr, i64, ptr, ptr, { i64, i64 }, { i64, i64 }, ptr, i8, i8, [6 x i8], %"struct.zmq::endpoint_uri_pair_t", i8, i8, i8, i8, [4 x i8], %"class.std::__cxx11::basic_string", i32, [4 x i8], ptr, i8, i8, [6 x i8], %"class.zmq::msg_t", i8, [7 x i8], ptr, ptr, i8, [7 x i8] }>

@stderr = external global ptr, align 8
@.str = private unnamed_addr constant [12 x i8] c"%s (%s:%d)\0A\00", align 1
@.str.1 = private unnamed_addr constant [111 x i8] c"generated/home/dtcxzyw/WorkSpace/Projects/compilers/llvm-opt-benchmark/bench/libzmq/libzmq/src/zmtp_engine.cpp\00", align 1

; Function Attrs: mustprogress nounwind uwtable
define linkonce_odr noundef ptr @_ZN3zmq20stream_engine_base_t7sessionEv(ptr noundef nonnull align 8 dereferenceable(1689) %this) #4 comdat align 2 {
entry:
  %this.addr = alloca ptr, align 8
  store ptr %this, ptr %this.addr, align 8
  %this1 = load ptr, ptr %this.addr, align 8
  %_session = getelementptr inbounds %"class.zmq::stream_engine_base_t", ptr %this1, i32 0, i32 32
  %0 = load ptr, ptr %_session, align 8
  ret ptr %0
}

; Function Attrs: mustprogress uwtable
define noundef i32 @_ZN3zmq13zmtp_engine_t22process_routing_id_msgEPNS_5msg_tE(ptr noundef nonnull align 8 dereferenceable(1976) %this, ptr noundef %msg_) #0 align 2 {
entry:
  %this.addr = alloca ptr, align 8
  %msg_.addr = alloca ptr, align 8
  %rc = alloca i32, align 4
  %errstr = alloca ptr, align 8
  %rc8 = alloca i32, align 4
  %errstr14 = alloca ptr, align 8
  %errstr26 = alloca ptr, align 8
  %subscription = alloca %"class.zmq::msg_t", align 8
  %rc36 = alloca i32, align 4
  %errstr42 = alloca ptr, align 8
  %errstr58 = alloca ptr, align 8
  store ptr %this, ptr %this.addr, align 8
  store ptr %msg_, ptr %msg_.addr, align 8
  %this1 = load ptr, ptr %this.addr, align 8
  %_options = getelementptr inbounds %"class.zmq::stream_engine_base_t", ptr %this1, i32 0, i32 2
  %recv_routing_id = getelementptr inbounds %"struct.zmq::options_t", ptr %_options, i32 0, i32 28
  %0 = load i8, ptr %recv_routing_id, align 2
  %tobool = trunc i8 %0 to i1
  br i1 %tobool, label %if.then, label %if.else

if.then:                                          ; preds = %entry
  %1 = load ptr, ptr %msg_.addr, align 8
  call void @_ZN3zmq5msg_t9set_flagsEh(ptr noundef nonnull align 8 dereferenceable(64) %1, i8 noundef zeroext 64)
  %call = call noundef ptr @_ZN3zmq20stream_engine_base_t7sessionEv(ptr noundef nonnull align 8 dereferenceable(1689) %this1)
  %2 = load ptr, ptr %msg_.addr, align 8
  %vtable = load ptr, ptr %call, align 8
  %vfn = getelementptr inbounds ptr, ptr %vtable, i64 29
  %3 = load ptr, ptr %vfn, align 8
  %call2 = call noundef i32 %3(ptr noundef nonnull align 8 dereferenceable(1624) %call, ptr noundef %2)
  store i32 %call2, ptr %rc, align 4
  br label %do.body

do.body:                                          ; preds = %if.then
  %4 = load i32, ptr %rc, align 4
  %cmp = icmp eq i32 %4, 0
  %lnot = xor i1 %cmp, true
  br i1 %lnot, label %if.then3, label %if.end

if.then3:                                         ; preds = %do.body
  %call4 = call ptr @__errno_location() #13
  %5 = load i32, ptr %call4, align 4
  %call5 = call ptr @strerror(i32 noundef %5) #14
  store ptr %call5, ptr %errstr, align 8
  %6 = load ptr, ptr @stderr, align 8
  %7 = load ptr, ptr %errstr, align 8
  %call6 = call i32 (ptr, ptr, ...) @fprintf(ptr noundef %6, ptr noundef @.str, ptr noundef %7, ptr noundef @.str.1, i32 noundef 422)
  %8 = load ptr, ptr @stderr, align 8
  %call7 = call i32 @fflush(ptr noundef %8)
  %9 = load ptr, ptr %errstr, align 8
  call void @_ZN3zmq9zmq_abortEPKc(ptr noundef %9)
  br label %if.end

if.end:                                           ; preds = %if.then3, %do.body
  br label %do.end

do.end:                                           ; preds = %if.end
  br label %if.end33

if.else:                                          ; preds = %entry
  %10 = load ptr, ptr %msg_.addr, align 8
  %call9 = call noundef i32 @_ZN3zmq5msg_t5closeEv(ptr noundef nonnull align 8 dereferenceable(64) %10)
  store i32 %call9, ptr %rc8, align 4
  br label %do.body10

do.body10:                                        ; preds = %if.else
  %11 = load i32, ptr %rc8, align 4
  %cmp11 = icmp eq i32 %11, 0
  %lnot12 = xor i1 %cmp11, true
  br i1 %lnot12, label %if.then13, label %if.end19

if.then13:                                        ; preds = %do.body10
  %call15 = call ptr @__errno_location() #13
  %12 = load i32, ptr %call15, align 4
  %call16 = call ptr @strerror(i32 noundef %12) #14
  store ptr %call16, ptr %errstr14, align 8
  %13 = load ptr, ptr @stderr, align 8
  %14 = load ptr, ptr %errstr14, align 8
  %call17 = call i32 (ptr, ptr, ...) @fprintf(ptr noundef %13, ptr noundef @.str, ptr noundef %14, ptr noundef @.str.1, i32 noundef 425)
  %15 = load ptr, ptr @stderr, align 8
  %call18 = call i32 @fflush(ptr noundef %15)
  %16 = load ptr, ptr %errstr14, align 8
  call void @_ZN3zmq9zmq_abortEPKc(ptr noundef %16)
  br label %if.end19

if.end19:                                         ; preds = %if.then13, %do.body10
  br label %do.end20

do.end20:                                         ; preds = %if.end19
  %17 = load ptr, ptr %msg_.addr, align 8
  %call21 = call noundef i32 @_ZN3zmq5msg_t4initEv(ptr noundef nonnull align 8 dereferenceable(64) %17)
  store i32 %call21, ptr %rc8, align 4
  br label %do.body22

do.body22:                                        ; preds = %do.end20
  %18 = load i32, ptr %rc8, align 4
  %cmp23 = icmp eq i32 %18, 0
  %lnot24 = xor i1 %cmp23, true
  br i1 %lnot24, label %if.then25, label %if.end31

if.then25:                                        ; preds = %do.body22
  %call27 = call ptr @__errno_location() #13
  %19 = load i32, ptr %call27, align 4
  %call28 = call ptr @strerror(i32 noundef %19) #14
  store ptr %call28, ptr %errstr26, align 8
  %20 = load ptr, ptr @stderr, align 8
  %21 = load ptr, ptr %errstr26, align 8
  %call29 = call i32 (ptr, ptr, ...) @fprintf(ptr noundef %20, ptr noundef @.str, ptr noundef %21, ptr noundef @.str.1, i32 noundef 427)
  %22 = load ptr, ptr @stderr, align 8
  %call30 = call i32 @fflush(ptr noundef %22)
  %23 = load ptr, ptr %errstr26, align 8
  call void @_ZN3zmq9zmq_abortEPKc(ptr noundef %23)
  br label %if.end31

if.end31:                                         ; preds = %if.then25, %do.body22
  br label %do.end32

do.end32:                                         ; preds = %if.end31
  br label %if.end33

if.end33:                                         ; preds = %do.end32, %do.end
  %_subscription_required = getelementptr inbounds %"class.zmq::zmtp_engine_t", ptr %this1, i32 0, i32 8
  %24 = load i8, ptr %_subscription_required, align 4
  %tobool34 = trunc i8 %24 to i1
  br i1 %tobool34, label %if.then35, label %if.end65

if.then35:                                        ; preds = %if.end33
  %call37 = call noundef i32 @_ZN3zmq5msg_t9init_sizeEm(ptr noundef nonnull align 8 dereferenceable(64) %subscription, i64 noundef 1)
  store i32 %call37, ptr %rc36, align 4
  br label %do.body38

do.body38:                                        ; preds = %if.then35
  %25 = load i32, ptr %rc36, align 4
  %cmp39 = icmp eq i32 %25, 0
  %lnot40 = xor i1 %cmp39, true
  br i1 %lnot40, label %if.then41, label %if.end47

if.then41:                                        ; preds = %do.body38
  %call43 = call ptr @__errno_location() #13
  %26 = load i32, ptr %call43, align 4
  %call44 = call ptr @strerror(i32 noundef %26) #14
  store ptr %call44, ptr %errstr42, align 8
  %27 = load ptr, ptr @stderr, align 8
  %28 = load ptr, ptr %errstr42, align 8
  %call45 = call i32 (ptr, ptr, ...) @fprintf(ptr noundef %27, ptr noundef @.str, ptr noundef %28, ptr noundef @.str.1, i32 noundef 436)
  %29 = load ptr, ptr @stderr, align 8
  %call46 = call i32 @fflush(ptr noundef %29)
  %30 = load ptr, ptr %errstr42, align 8
  call void @_ZN3zmq9zmq_abortEPKc(ptr noundef %30)
  br label %if.end47

if.end47:                                         ; preds = %if.then41, %do.body38
  br label %do.end48

do.end48:                                         ; preds = %if.end47
  %call49 = call noundef ptr @_ZN3zmq5msg_t4dataEv(ptr noundef nonnull align 8 dereferenceable(64) %subscription)
  store i8 1, ptr %call49, align 1
  %call50 = call noundef ptr @_ZN3zmq20stream_engine_base_t7sessionEv(ptr noundef nonnull align 8 dereferenceable(1689) %this1)
  %vtable51 = load ptr, ptr %call50, align 8
  %vfn52 = getelementptr inbounds ptr, ptr %vtable51, i64 29
  %31 = load ptr, ptr %vfn52, align 8
  %call53 = call noundef i32 %31(ptr noundef nonnull align 8 dereferenceable(1624) %call50, ptr noundef %subscription)
  store i32 %call53, ptr %rc36, align 4
  br label %do.body54

do.body54:                                        ; preds = %do.end48
  %32 = load i32, ptr %rc36, align 4
  %cmp55 = icmp eq i32 %32, 0
  %lnot56 = xor i1 %cmp55, true
  br i1 %lnot56, label %if.then57, label %if.end63

if.then57:                                        ; preds = %do.body54
  %call59 = call ptr @__errno_location() #13
  %33 = load i32, ptr %call59, align 4
  %call60 = call ptr @strerror(i32 noundef %33) #14
  store ptr %call60, ptr %errstr58, align 8
  %34 = load ptr, ptr @stderr, align 8
  %35 = load ptr, ptr %errstr58, align 8
  %call61 = call i32 (ptr, ptr, ...) @fprintf(ptr noundef %34, ptr noundef @.str, ptr noundef %35, ptr noundef @.str.1, i32 noundef 439)
  %36 = load ptr, ptr @stderr, align 8
  %call62 = call i32 @fflush(ptr noundef %36)
  %37 = load ptr, ptr %errstr58, align 8
  call void @_ZN3zmq9zmq_abortEPKc(ptr noundef %37)
  br label %if.end63

if.end63:                                         ; preds = %if.then57, %do.body54
  br label %do.end64

do.end64:                                         ; preds = %if.end63
  br label %if.end65

if.end65:                                         ; preds = %do.end64, %if.end33
  %_process_msg = getelementptr inbounds %"class.zmq::stream_engine_base_t", ptr %this1, i32 0, i32 11
  store { i64, i64 } { i64 ptrtoint (ptr @_ZN3zmq20stream_engine_base_t19push_msg_to_sessionEPNS_5msg_tE to i64), i64 0 }, ptr %_process_msg, align 8
  ret i32 0
}