; Function Attrs: mustprogress uwtable
define noundef i32 @_ZN3zmq13zmtp_engine_t22process_routing_id_msgEPNS_5msg_tE(ptr nocapture noundef nonnull align 8 dereferenceable(1976) %this, ptr noundef %msg_) #0 align 2 {
entry:
  %subscription = alloca %"class.zmq::msg_t", align 8
  %recv_routing_id = getelementptr inbounds i8, ptr %this, i64 394
  %0 = load i8, ptr %recv_routing_id, align 2
  %1 = and i8 %0, 1
  %tobool.not = icmp eq i8 %1, 0
  br i1 %tobool.not, label %if.else, label %if.then

if.then:                                          ; preds = %entry
  tail call void @_ZN3zmq5msg_t9set_flagsEh(ptr noundef nonnull align 8 dereferenceable(64) %msg_, i8 noundef zeroext 64)
  %_session.i = getelementptr inbounds i8, ptr %this, i64 1672
  %2 = load ptr, ptr %_session.i, align 8
  %vtable = load ptr, ptr %2, align 8
  %vfn = getelementptr inbounds i8, ptr %vtable, i64 232
  %3 = load ptr, ptr %vfn, align 8
  %call2 = tail call noundef i32 %3(ptr noundef nonnull align 8 dereferenceable(1624) %2, ptr noundef nonnull %msg_)
  %cmp.not = icmp eq i32 %call2, 0
  br i1 %cmp.not, label %if.end33, label %if.then3

if.then3:                                         ; preds = %if.then
  %call4 = tail call ptr @__errno_location() #16
  %4 = load i32, ptr %call4, align 4
  %call5 = tail call ptr @strerror(i32 noundef %4) #17
  %5 = load ptr, ptr @stderr, align 8
  %call6 = tail call i32 (ptr, ptr, ...) @fprintf(ptr noundef %5, ptr noundef nonnull @.str, ptr noundef %call5, ptr noundef nonnull @.str.1, i32 noundef 422) #18
  br label %if.end33.sink.split

if.else:                                          ; preds = %entry
  %call9 = tail call noundef i32 @_ZN3zmq5msg_t5closeEv(ptr noundef nonnull align 8 dereferenceable(64) %msg_)
  %cmp11.not = icmp eq i32 %call9, 0
  br i1 %cmp11.not, label %do.end20, label %if.then13

if.then13:                                        ; preds = %if.else
  %call15 = tail call ptr @__errno_location() #16
  %6 = load i32, ptr %call15, align 4
  %call16 = tail call ptr @strerror(i32 noundef %6) #17
  %7 = load ptr, ptr @stderr, align 8
  %call17 = tail call i32 (ptr, ptr, ...) @fprintf(ptr noundef %7, ptr noundef nonnull @.str, ptr noundef %call16, ptr noundef nonnull @.str.1, i32 noundef 425) #18
  %8 = load ptr, ptr @stderr, align 8
  %call18 = tail call i32 @fflush(ptr noundef %8)
  tail call void @_ZN3zmq9zmq_abortEPKc(ptr noundef %call16)
  br label %do.end20

do.end20:                                         ; preds = %if.else, %if.then13
  %call21 = tail call noundef i32 @_ZN3zmq5msg_t4initEv(ptr noundef nonnull align 8 dereferenceable(64) %msg_)
  %cmp23.not = icmp eq i32 %call21, 0
  br i1 %cmp23.not, label %if.end33, label %if.then25

if.then25:                                        ; preds = %do.end20
  %call27 = tail call ptr @__errno_location() #16
  %9 = load i32, ptr %call27, align 4
  %call28 = tail call ptr @strerror(i32 noundef %9) #17
  %10 = load ptr, ptr @stderr, align 8
  %call29 = tail call i32 (ptr, ptr, ...) @fprintf(ptr noundef %10, ptr noundef nonnull @.str, ptr noundef %call28, ptr noundef nonnull @.str.1, i32 noundef 427) #18
  br label %if.end33.sink.split

if.end33.sink.split:                              ; preds = %if.then3, %if.then25
  %call28.sink = phi ptr [ %call28, %if.then25 ], [ %call5, %if.then3 ]
  %11 = load ptr, ptr @stderr, align 8
  %call30 = tail call i32 @fflush(ptr noundef %11)
  tail call void @_ZN3zmq9zmq_abortEPKc(ptr noundef %call28.sink)
  br label %if.end33

if.end33:                                         ; preds = %if.end33.sink.split, %do.end20, %if.then
  %_subscription_required = getelementptr inbounds i8, ptr %this, i64 1964
  %12 = load i8, ptr %_subscription_required, align 4
  %13 = and i8 %12, 1
  %tobool34.not = icmp eq i8 %13, 0
  br i1 %tobool34.not, label %if.end65, label %if.then35

if.then35:                                        ; preds = %if.end33
  %call37 = call noundef i32 @_ZN3zmq5msg_t9init_sizeEm(ptr noundef nonnull align 8 dereferenceable(64) %subscription, i64 noundef 1)
  %cmp39.not = icmp eq i32 %call37, 0
  br i1 %cmp39.not, label %do.end48, label %if.then41

if.then41:                                        ; preds = %if.then35
  %call43 = tail call ptr @__errno_location() #16
  %14 = load i32, ptr %call43, align 4
  %call44 = call ptr @strerror(i32 noundef %14) #17
  %15 = load ptr, ptr @stderr, align 8
  %call45 = call i32 (ptr, ptr, ...) @fprintf(ptr noundef %15, ptr noundef nonnull @.str, ptr noundef %call44, ptr noundef nonnull @.str.1, i32 noundef 436) #18
  %16 = load ptr, ptr @stderr, align 8
  %call46 = call i32 @fflush(ptr noundef %16)
  call void @_ZN3zmq9zmq_abortEPKc(ptr noundef %call44)
  br label %do.end48

do.end48:                                         ; preds = %if.then35, %if.then41
  %call49 = call noundef ptr @_ZN3zmq5msg_t4dataEv(ptr noundef nonnull align 8 dereferenceable(64) %subscription)
  store i8 1, ptr %call49, align 1
  %_session.i12 = getelementptr inbounds i8, ptr %this, i64 1672
  %17 = load ptr, ptr %_session.i12, align 8
  %vtable51 = load ptr, ptr %17, align 8
  %vfn52 = getelementptr inbounds i8, ptr %vtable51, i64 232
  %18 = load ptr, ptr %vfn52, align 8
  %call53 = call noundef i32 %18(ptr noundef nonnull align 8 dereferenceable(1624) %17, ptr noundef nonnull %subscription)
  %cmp55.not = icmp eq i32 %call53, 0
  br i1 %cmp55.not, label %if.end65, label %if.then57

if.then57:                                        ; preds = %do.end48
  %call59 = tail call ptr @__errno_location() #16
  %19 = load i32, ptr %call59, align 4
  %call60 = call ptr @strerror(i32 noundef %19) #17
  %20 = load ptr, ptr @stderr, align 8
  %call61 = call i32 (ptr, ptr, ...) @fprintf(ptr noundef %20, ptr noundef nonnull @.str, ptr noundef %call60, ptr noundef nonnull @.str.1, i32 noundef 439) #18
  %21 = load ptr, ptr @stderr, align 8
  %call62 = call i32 @fflush(ptr noundef %21)
  call void @_ZN3zmq9zmq_abortEPKc(ptr noundef %call60)
  br label %if.end65

if.end65:                                         ; preds = %if.then57, %do.end48, %if.end33
  %_process_msg = getelementptr inbounds i8, ptr %this, i64 1432
  store i64 ptrtoint (ptr @_ZN3zmq20stream_engine_base_t19push_msg_to_sessionEPNS_5msg_tE to i64), ptr %_process_msg, align 8
  %_process_msg.repack11 = getelementptr inbounds i8, ptr %this, i64 1440
  store i64 0, ptr %_process_msg.repack11, align 8
  ret i32 0
}